target datalayout = "e-m:e-p270:32:32-p271:32:32-p272:64:64-i64:64-i128:128-f80:128-n8:16:32:64-S128"
target triple = "x86_64-pc-linux-gnu"

%struct.Vec_Int_t_ = type { i32, i32, ptr }
%struct.Vec_Ptr_t_ = type { i32, i32, ptr }
%struct.Vec_Wec_t_ = type { i32, i32, ptr }

; Function Attrs: inlinehint nounwind uwtable
define internal ptr @Vec_WecAlloc(i32 noundef %0) #2 {
  %2 = alloca i32, align 4
  %3 = alloca ptr, align 8
  store i32 %0, ptr %2, align 4, !tbaa !8
  call void @llvm.lifetime.start.p0(i64 8, ptr %3) #13
  %4 = call noalias ptr @malloc(i64 noundef 16) #14
  store ptr %4, ptr %3, align 8, !tbaa !103
  %5 = load i32, ptr %2, align 4, !tbaa !8
  %6 = icmp sgt i32 %5, 0
  br i1 %6, label %7, label %11

7:                                                ; preds = %1
  %8 = load i32, ptr %2, align 4, !tbaa !8
  %9 = icmp slt i32 %8, 8
  br i1 %9, label %10, label %11

10:                                               ; preds = %7
  store i32 8, ptr %2, align 4, !tbaa !8
  br label %11

11:                                               ; preds = %10, %7, %1
  %12 = load ptr, ptr %3, align 8, !tbaa !103
  %13 = getelementptr inbounds nuw %struct.Vec_Wec_t_, ptr %12, i32 0, i32 1
  store i32 0, ptr %13, align 4, !tbaa !106
  %14 = load i32, ptr %2, align 4, !tbaa !8
  %15 = load ptr, ptr %3, align 8, !tbaa !103
  %16 = getelementptr inbounds nuw %struct.Vec_Wec_t_, ptr %15, i32 0, i32 0
  store i32 %14, ptr %16, align 8, !tbaa !280
  %17 = load ptr, ptr %3, align 8, !tbaa !103
  %18 = getelementptr inbounds nuw %struct.Vec_Wec_t_, ptr %17, i32 0, i32 0
  %19 = load i32, ptr %18, align 8, !tbaa !280
  %20 = icmp ne i32 %19, 0
  br i1 %20, label %21, label %27

21:                                               ; preds = %11
  %22 = load ptr, ptr %3, align 8, !tbaa !103
  %23 = getelementptr inbounds nuw %struct.Vec_Wec_t_, ptr %22, i32 0, i32 0
  %24 = load i32, ptr %23, align 8, !tbaa !280
  %25 = sext i32 %24 to i64
  %26 = call noalias ptr @calloc(i64 noundef %25, i64 noundef 16) #16
  br label %28

27:                                               ; preds = %11
  br label %28

28:                                               ; preds = %27, %21
  %29 = phi ptr [ %26, %21 ], [ null, %27 ]
  %30 = load ptr, ptr %3, align 8, !tbaa !103
  %31 = getelementptr inbounds nuw %struct.Vec_Wec_t_, ptr %30, i32 0, i32 2
  store ptr %29, ptr %31, align 8, !tbaa !108
  %32 = load ptr, ptr %3, align 8, !tbaa !103
  call void @llvm.lifetime.end.p0(i64 8, ptr %3) #13
  ret ptr %32
}

; Function Attrs: inlinehint nounwind uwtable
define internal ptr @Vec_PtrEntry(ptr noundef %0, i32 noundef %1) #2 {
  %3 = alloca ptr, align 8
  %4 = alloca i32, align 4
  store ptr %0, ptr %3, align 8, !tbaa !73
  store i32 %1, ptr %4, align 4, !tbaa !8
  %5 = load ptr, ptr %3, align 8, !tbaa !73
  %6 = getelementptr inbounds nuw %struct.Vec_Ptr_t_, ptr %5, i32 0, i32 2
  %7 = load ptr, ptr %6, align 8, !tbaa !81
  %8 = load i32, ptr %4, align 4, !tbaa !8
  %9 = sext i32 %8 to i64
  %10 = getelementptr inbounds ptr, ptr %7, i64 %9
  %11 = load ptr, ptr %10, align 8, !tbaa !83
  ret ptr %11
}

; Function Attrs: inlinehint nounwind uwtable
define internal ptr @Vec_WecEntry(ptr noundef %0, i32 noundef %1) #2 {
  %3 = alloca ptr, align 8
  %4 = alloca i32, align 4
  store ptr %0, ptr %3, align 8, !tbaa !103
  store i32 %1, ptr %4, align 4, !tbaa !8
  %5 = load ptr, ptr %3, align 8, !tbaa !103
  %6 = getelementptr inbounds nuw %struct.Vec_Wec_t_, ptr %5, i32 0, i32 2
  %7 = load ptr, ptr %6, align 8, !tbaa !108
  %8 = load i32, ptr %4, align 4, !tbaa !8
  %9 = sext i32 %8 to i64
  %10 = getelementptr inbounds %struct.Vec_Int_t_, ptr %7, i64 %9
  ret ptr %10
}

; Function Attrs: inlinehint nounwind uwtable
define internal i32 @Vec_WecSize(ptr noundef %0) #2 {
  %2 = alloca ptr, align 8
  store ptr %0, ptr %2, align 8, !tbaa !103
  %3 = load ptr, ptr %2, align 8, !tbaa !103
  %4 = getelementptr inbounds nuw %struct.Vec_Wec_t_, ptr %3, i32 0, i32 1
  %5 = load i32, ptr %4, align 4, !tbaa !106
  ret i32 %5
}

; Function Attrs: inlinehint nounwind uwtable
define internal ptr @Vec_WecStart(i32 noundef %0) #2 {
  %2 = alloca i32, align 4
  %3 = alloca ptr, align 8
  store i32 %0, ptr %2, align 4, !tbaa !8
  call void @llvm.lifetime.start.p0(i64 8, ptr %3) #13
  %4 = load i32, ptr %2, align 4, !tbaa !8
  %5 = call ptr @Vec_WecAlloc(i32 noundef %4)
  store ptr %5, ptr %3, align 8, !tbaa !103
  %6 = load i32, ptr %2, align 4, !tbaa !8
  %7 = load ptr, ptr %3, align 8, !tbaa !103
  %8 = getelementptr inbounds nuw %struct.Vec_Wec_t_, ptr %7, i32 0, i32 1
  store i32 %6, ptr %8, align 4, !tbaa !106
  %9 = load ptr, ptr %3, align 8, !tbaa !103
  call void @llvm.lifetime.end.p0(i64 8, ptr %3) #13
  ret ptr %9
}

; Function Attrs: inlinehint nounwind uwtable
define internal i32 @Vec_PtrSize(ptr noundef %0) #2 {
  %2 = alloca ptr, align 8
  store ptr %0, ptr %2, align 8, !tbaa !73
  %3 = load ptr, ptr %2, align 8, !tbaa !73
  %4 = getelementptr inbounds nuw %struct.Vec_Ptr_t_, ptr %3, i32 0, i32 1
  %5 = load i32, ptr %4, align 4, !tbaa !353
  ret i32 %5
}

; Function Attrs: nounwind uwtable
define ptr @Gia_ManSim2Array(ptr noundef %0) #0 {
  %2 = alloca ptr, align 8
  %3 = alloca ptr, align 8
  %4 = alloca ptr, align 8
  %5 = alloca i32, align 4
  store ptr %0, ptr %2, align 8, !tbaa !73
  call void @llvm.lifetime.start.p0(i64 8, ptr %3) #13
  %6 = load ptr, ptr %2, align 8, !tbaa !73
  %7 = call i32 @Vec_PtrSize(ptr noundef %6)
  %8 = call ptr @Vec_WecStart(i32 noundef %7)
  store ptr %8, ptr %3, align 8, !tbaa !103
  call void @llvm.lifetime.start.p0(i64 8, ptr %4) #13
  call void @llvm.lifetime.start.p0(i64 4, ptr %5) #13
  store i32 0, ptr %5, align 4, !tbaa !8
  br label %9

9:                                                ; preds = %25, %1
  %10 = load i32, ptr %5, align 4, !tbaa !8
  %11 = load ptr, ptr %3, align 8, !tbaa !103
  %12 = call i32 @Vec_WecSize(ptr noundef %11)
  %13 = icmp slt i32 %10, %12
  br i1 %13, label %14, label %18

14:                                               ; preds = %9
  %15 = load ptr, ptr %3, align 8, !tbaa !103
  %16 = load i32, ptr %5, align 4, !tbaa !8
  %17 = call ptr @Vec_WecEntry(ptr noundef %15, i32 noundef %16)
  store ptr %17, ptr %4, align 8, !tbaa !33
  br label %18

18:                                               ; preds = %14, %9
  %19 = phi i1 [ false, %9 ], [ true, %14 ]
  br i1 %19, label %20, label %28

20:                                               ; preds = %18
  %21 = load ptr, ptr %2, align 8, !tbaa !73
  %22 = load i32, ptr %5, align 4, !tbaa !8
  %23 = call ptr @Vec_PtrEntry(ptr noundef %21, i32 noundef %22)
  %24 = load ptr, ptr %4, align 8, !tbaa !33
  call void @Gia_ManSim2ArrayOne(ptr noundef %23, ptr noundef %24)
  br label %25

25:                                               ; preds = %20
  %26 = load i32, ptr %5, align 4, !tbaa !8
  %27 = add nsw i32 %26, 1
  store i32 %27, ptr %5, align 4, !tbaa !8
  br label %9, !llvm.loop !352

28:                                               ; preds = %18
  %29 = load ptr, ptr %3, align 8, !tbaa !103
  call void @llvm.lifetime.end.p0(i64 4, ptr %5) #13
  call void @llvm.lifetime.end.p0(i64 8, ptr %4) #13
  call void @llvm.lifetime.end.p0(i64 8, ptr %3) #13
  ret ptr %29
}