; Function Attrs: nounwind uwtable
define noalias noundef ptr @Gia_ManSim2Array(ptr noundef readonly captures(none) %0) local_unnamed_addr #4 {
  %2 = getelementptr i8, ptr %0, i64 4
  %.val11 = load i32, ptr %2, align 4, !tbaa !338
  %3 = tail call noalias dereferenceable_or_null(16) ptr @malloc(i64 noundef 16) #31
  %4 = add i32 %.val11, -1
  %or.cond.i.i = icmp ult i32 %4, 7
  %spec.store.select.i.i = select i1 %or.cond.i.i, i32 8, i32 %.val11
  store i32 %spec.store.select.i.i, ptr %3, align 8, !tbaa !92
  %.not.i.i = icmp eq i32 %spec.store.select.i.i, 0
  br i1 %.not.i.i, label %Vec_WecStart.exit, label %5

5:                                                ; preds = %1
  %6 = sext i32 %spec.store.select.i.i to i64
  %7 = tail call noalias ptr @calloc(i64 noundef %6, i64 noundef 16) #35
  br label %Vec_WecStart.exit

Vec_WecStart.exit:                                ; preds = %1, %5
  %8 = phi ptr [ %7, %5 ], [ null, %1 ]
  %9 = getelementptr inbounds nuw i8, ptr %3, i64 4
  %10 = getelementptr inbounds nuw i8, ptr %3, i64 8
  store ptr %8, ptr %10, align 8, !tbaa !94
  store i32 %.val11, ptr %9, align 4, !tbaa !95
  %11 = icmp sgt i32 %.val11, 0
  br i1 %11, label %.lr.ph, label %.critedge

.lr.ph:                                           ; preds = %Vec_WecStart.exit
  %12 = getelementptr i8, ptr %0, i64 8
  %wide.trip.count = zext nneg i32 %.val11 to i64
  br label %13

13:                                               ; preds = %.lr.ph, %13
  %indvars.iv = phi i64 [ 0, %.lr.ph ], [ %indvars.iv.next, %13 ]
  %14 = getelementptr inbounds nuw %struct.Vec_Int_t_, ptr %8, i64 %indvars.iv
  %.val = load ptr, ptr %12, align 8, !tbaa !340
  %15 = getelementptr inbounds nuw ptr, ptr %.val, i64 %indvars.iv
  %16 = load ptr, ptr %15, align 8, !tbaa !67
  tail call void @Gia_ManSim2ArrayOne(ptr noundef %16, ptr noundef %14)
  %indvars.iv.next = add nuw nsw i64 %indvars.iv, 1
  %exitcond.not = icmp eq i64 %indvars.iv.next, %wide.trip.count
  br i1 %exitcond.not, label %.critedge, label %13, !llvm.loop !341

.critedge:                                        ; preds = %13, %Vec_WecStart.exit
  ret ptr %3
}